; ModuleID = '9/79.c'
source_filename = "9/79.c"
target datalayout = "e-m:e-p270:32:32-p271:32:32-p272:64:64-i64:64-f80:128-n8:16:32:64-S128"
target triple = "x86_64-pc-linux-gnu"

@.str = private unnamed_addr constant [3 x i8] c"%d\00", align 1
@.str.1 = private unnamed_addr constant [6 x i8] c"%s %d\00", align 1
@.str.2 = private unnamed_addr constant [4 x i8] c"%s\0A\00", align 1

; Function Attrs: noinline nounwind uwtable
define dso_local void @main() #0 {
  %1 = alloca i32, align 4
  %2 = alloca [100 x i32], align 16
  %3 = alloca i32, align 4
  %4 = alloca i32, align 4
  %5 = alloca i32, align 4
  %6 = alloca i32, align 4
  %7 = alloca i32, align 4
  %8 = alloca [100 x [10 x i8]], align 16
  %9 = alloca [10 x i8], align 1
  store i32 0, i32* %5, align 4
  %10 = call i32 (i8*, ...) @__isoc99_scanf(i8* getelementptr inbounds ([3 x i8], [3 x i8]* @.str, i64 0, i64 0), i32* %1)
  store i32 0, i32* %3, align 4
  br label %11

11:                                               ; preds = %24, %0
  %12 = load i32, i32* %3, align 4
  %13 = load i32, i32* %1, align 4
  %14 = icmp slt i32 %12, %13
  br i1 %14, label %15, label %27

15:                                               ; preds = %11
  %16 = load i32, i32* %3, align 4
  %17 = sext i32 %16 to i64
  %18 = getelementptr inbounds [100 x [10 x i8]], [100 x [10 x i8]]* %8, i64 0, i64 %17
  %19 = getelementptr inbounds [10 x i8], [10 x i8]* %18, i64 0, i64 0
  %20 = load i32, i32* %3, align 4
  %21 = sext i32 %20 to i64
  %22 = getelementptr inbounds [100 x i32], [100 x i32]* %2, i64 0, i64 %21
  %23 = call i32 (i8*, ...) @__isoc99_scanf(i8* getelementptr inbounds ([6 x i8], [6 x i8]* @.str.1, i64 0, i64 0), i8* %19, i32* %22)
  br label %24

24:                                               ; preds = %15
  %25 = load i32, i32* %3, align 4
  %26 = add nsw i32 %25, 1
  store i32 %26, i32* %3, align 4
  br label %11

27:                                               ; preds = %11
  store i32 0, i32* %3, align 4
  br label %28

28:                                               ; preds = %92, %27
  %29 = load i32, i32* %3, align 4
  %30 = load i32, i32* %1, align 4
  %31 = icmp slt i32 %29, %30
  br i1 %31, label %32, label %95

32:                                               ; preds = %28
  %33 = load i32, i32* %3, align 4
  %34 = sext i32 %33 to i64
  %35 = getelementptr inbounds [100 x i32], [100 x i32]* %2, i64 0, i64 %34
  %36 = load i32, i32* %35, align 4
  %37 = icmp sge i32 %36, 60
  br i1 %37, label %38, label %91

38:                                               ; preds = %32
  %39 = load i32, i32* %5, align 4
  %40 = add nsw i32 %39, 1
  store i32 %40, i32* %5, align 4
  %41 = load i32, i32* %3, align 4
  store i32 %41, i32* %4, align 4
  br label %42

42:                                               ; preds = %87, %38
  %43 = load i32, i32* %4, align 4
  %44 = load i32, i32* %5, align 4
  %45 = icmp sge i32 %43, %44
  br i1 %45, label %46, label %90

46:                                               ; preds = %42
  %47 = getelementptr inbounds [10 x i8], [10 x i8]* %9, i64 0, i64 0
  %48 = load i32, i32* %4, align 4
  %49 = sext i32 %48 to i64
  %50 = getelementptr inbounds [100 x [10 x i8]], [100 x [10 x i8]]* %8, i64 0, i64 %49
  %51 = getelementptr inbounds [10 x i8], [10 x i8]* %50, i64 0, i64 0
  %52 = call i8* @strcpy(i8* %47, i8* %51) #3
  %53 = load i32, i32* %4, align 4
  %54 = sext i32 %53 to i64
  %55 = getelementptr inbounds [100 x [10 x i8]], [100 x [10 x i8]]* %8, i64 0, i64 %54
  %56 = getelementptr inbounds [10 x i8], [10 x i8]* %55, i64 0, i64 0
  %57 = load i32, i32* %4, align 4
  %58 = sub nsw i32 %57, 1
  %59 = sext i32 %58 to i64
  %60 = getelementptr inbounds [100 x [10 x i8]], [100 x [10 x i8]]* %8, i64 0, i64 %59
  %61 = getelementptr inbounds [10 x i8], [10 x i8]* %60, i64 0, i64 0
  %62 = call i8* @strcpy(i8* %56, i8* %61) #3
  %63 = load i32, i32* %4, align 4
  %64 = sub nsw i32 %63, 1
  %65 = sext i32 %64 to i64
  %66 = getelementptr inbounds [100 x [10 x i8]], [100 x [10 x i8]]* %8, i64 0, i64 %65
  %67 = getelementptr inbounds [10 x i8], [10 x i8]* %66, i64 0, i64 0
  %68 = getelementptr inbounds [10 x i8], [10 x i8]* %9, i64 0, i64 0
  %69 = call i8* @strcpy(i8* %67, i8* %68) #3
  %70 = load i32, i32* %4, align 4
  %71 = sext i32 %70 to i64
  %72 = getelementptr inbounds [100 x i32], [100 x i32]* %2, i64 0, i64 %71
  %73 = load i32, i32* %72, align 4
  store i32 %73, i32* %7, align 4
  %74 = load i32, i32* %4, align 4
  %75 = sub nsw i32 %74, 1
  %76 = sext i32 %75 to i64
  %77 = getelementptr inbounds [100 x i32], [100 x i32]* %2, i64 0, i64 %76
  %78 = load i32, i32* %77, align 4
  %79 = load i32, i32* %4, align 4
  %80 = sext i32 %79 to i64
  %81 = getelementptr inbounds [100 x i32], [100 x i32]* %2, i64 0, i64 %80
  store i32 %78, i32* %81, align 4
  %82 = load i32, i32* %7, align 4
  %83 = load i32, i32* %4, align 4
  %84 = sub nsw i32 %83, 1
  %85 = sext i32 %84 to i64
  %86 = getelementptr inbounds [100 x i32], [100 x i32]* %2, i64 0, i64 %85
  store i32 %82, i32* %86, align 4
  br label %87

87:                                               ; preds = %46
  %88 = load i32, i32* %4, align 4
  %89 = add nsw i32 %88, -1
  store i32 %89, i32* %4, align 4
  br label %42

90:                                               ; preds = %42
  br label %91

91:                                               ; preds = %90, %32
  br label %92

92:                                               ; preds = %91
  %93 = load i32, i32* %3, align 4
  %94 = add nsw i32 %93, 1
  store i32 %94, i32* %3, align 4
  br label %28

95:                                               ; preds = %28
  store i32 0, i32* %3, align 4
  br label %96

96:                                               ; preds = %165, %95
  %97 = load i32, i32* %3, align 4
  %98 = load i32, i32* %5, align 4
  %99 = icmp slt i32 %97, %98
  br i1 %99, label %100, label %168

100:                                              ; preds = %96
  store i32 0, i32* %4, align 4
  br label %101

101:                                              ; preds = %161, %100
  %102 = load i32, i32* %4, align 4
  %103 = load i32, i32* %5, align 4
  %104 = load i32, i32* %3, align 4
  %105 = sub nsw i32 %103, %104
  %106 = sub nsw i32 %105, 1
  %107 = icmp slt i32 %102, %106
  br i1 %107, label %108, label %164

108:                                              ; preds = %101
  %109 = load i32, i32* %4, align 4
  %110 = sext i32 %109 to i64
  %111 = getelementptr inbounds [100 x i32], [100 x i32]* %2, i64 0, i64 %110
  %112 = load i32, i32* %111, align 4
  %113 = load i32, i32* %4, align 4
  %114 = add nsw i32 %113, 1
  %115 = sext i32 %114 to i64
  %116 = getelementptr inbounds [100 x i32], [100 x i32]* %2, i64 0, i64 %115
  %117 = load i32, i32* %116, align 4
  %118 = icmp slt i32 %112, %117
  br i1 %118, label %119, label %160

119:                                              ; preds = %108
  %120 = getelementptr inbounds [10 x i8], [10 x i8]* %9, i64 0, i64 0
  %121 = load i32, i32* %4, align 4
  %122 = sext i32 %121 to i64
  %123 = getelementptr inbounds [100 x [10 x i8]], [100 x [10 x i8]]* %8, i64 0, i64 %122
  %124 = getelementptr inbounds [10 x i8], [10 x i8]* %123, i64 0, i64 0
  %125 = call i8* @strcpy(i8* %120, i8* %124) #3
  %126 = load i32, i32* %4, align 4
  %127 = sext i32 %126 to i64
  %128 = getelementptr inbounds [100 x [10 x i8]], [100 x [10 x i8]]* %8, i64 0, i64 %127
  %129 = getelementptr inbounds [10 x i8], [10 x i8]* %128, i64 0, i64 0
  %130 = load i32, i32* %4, align 4
  %131 = add nsw i32 %130, 1
  %132 = sext i32 %131 to i64
  %133 = getelementptr inbounds [100 x [10 x i8]], [100 x [10 x i8]]* %8, i64 0, i64 %132
  %134 = getelementptr inbounds [10 x i8], [10 x i8]* %133, i64 0, i64 0
  %135 = call i8* @strcpy(i8* %129, i8* %134) #3
  %136 = load i32, i32* %4, align 4
  %137 = add nsw i32 %136, 1
  %138 = sext i32 %137 to i64
  %139 = getelementptr inbounds [100 x [10 x i8]], [100 x [10 x i8]]* %8, i64 0, i64 %138
  %140 = getelementptr inbounds [10 x i8], [10 x i8]* %139, i64 0, i64 0
  %141 = getelementptr inbounds [10 x i8], [10 x i8]* %9, i64 0, i64 0
  %142 = call i8* @strcpy(i8* %140, i8* %141) #3
  %143 = load i32, i32* %4, align 4
  %144 = sext i32 %143 to i64
  %145 = getelementptr inbounds [100 x i32], [100 x i32]* %2, i64 0, i64 %144
  %146 = load i32, i32* %145, align 4
  store i32 %146, i32* %7, align 4
  %147 = load i32, i32* %4, align 4
  %148 = add nsw i32 %147, 1
  %149 = sext i32 %148 to i64
  %150 = getelementptr inbounds [100 x i32], [100 x i32]* %2, i64 0, i64 %149
  %151 = load i32, i32* %150, align 4
  %152 = load i32, i32* %4, align 4
  %153 = sext i32 %152 to i64
  %154 = getelementptr inbounds [100 x i32], [100 x i32]* %2, i64 0, i64 %153
  store i32 %151, i32* %154, align 4
  %155 = load i32, i32* %7, align 4
  %156 = load i32, i32* %4, align 4
  %157 = add nsw i32 %156, 1
  %158 = sext i32 %157 to i64
  %159 = getelementptr inbounds [100 x i32], [100 x i32]* %2, i64 0, i64 %158
  store i32 %155, i32* %159, align 4
  br label %160

160:                                              ; preds = %119, %108
  br label %161

161:                                              ; preds = %160
  %162 = load i32, i32* %4, align 4
  %163 = add nsw i32 %162, 1
  store i32 %163, i32* %4, align 4
  br label %101

164:                                              ; preds = %101
  br label %165

165:                                              ; preds = %164
  %166 = load i32, i32* %3, align 4
  %167 = add nsw i32 %166, 1
  store i32 %167, i32* %3, align 4
  br label %96

168:                                              ; preds = %96
  store i32 0, i32* %3, align 4
  br label %169

169:                                              ; preds = %179, %168
  %170 = load i32, i32* %3, align 4
  %171 = load i32, i32* %1, align 4
  %172 = icmp slt i32 %170, %171
  br i1 %172, label %173, label %182

173:                                              ; preds = %169
  %174 = load i32, i32* %3, align 4
  %175 = sext i32 %174 to i64
  %176 = getelementptr inbounds [100 x [10 x i8]], [100 x [10 x i8]]* %8, i64 0, i64 %175
  %177 = getelementptr inbounds [10 x i8], [10 x i8]* %176, i64 0, i64 0
  %178 = call i32 (i8*, ...) @printf(i8* getelementptr inbounds ([4 x i8], [4 x i8]* @.str.2, i64 0, i64 0), i8* %177)
  br label %179

179:                                              ; preds = %173
  %180 = load i32, i32* %3, align 4
  %181 = add nsw i32 %180, 1
  store i32 %181, i32* %3, align 4
  br label %169

182:                                              ; preds = %169
  ret void
}

declare dso_local i32 @__isoc99_scanf(i8*, ...) #1

; Function Attrs: nounwind
declare dso_local i8* @strcpy(i8*, i8*) #2

declare dso_local i32 @printf(i8*, ...) #1


!llvm.module.flags = !{!0}
!llvm.ident = !{!1}

!0 = !{i32 1, !"wchar_size", i32 4}
!1 = !{!"clang version 10.0.0-4ubuntu1 "}
